target datalayout = "e-m:e-p270:32:32-p271:32:32-p272:64:64-i64:64-i128:128-f80:128-n8:16:32:64-S128"
target triple = "x86_64-pc-linux-gnu"

%struct.diff_queue_struct = type { ptr, i32, i32 }
%struct.diff_options = type { ptr, ptr, i32, i32, ptr, i32, ptr, i64, i64, ptr, ptr, ptr, ptr, %struct.diff_flags, i32, i32, i32, i32, i32, i32, i32, i32, i32, i32, i32, i32, i32, i32, i32, i32, i32, i32, i32, i32, i32, i32, ptr, i32, ptr, i32, i32, ptr, i64, i64, i32, i32, i32, i32, ptr, i32, i32, ptr, i32, i32, ptr, ptr, i32, [3 x i8], %struct.pathspec, ptr, ptr, ptr, ptr, ptr, ptr, ptr, ptr, i32, ptr, i32, i32, ptr, ptr, i32 }
%struct.diff_flags = type { i32, i32, i32, i32, i32, i32, i32, i32, i32, i32, i32, i32, i32, i32, i32, i32, i32, i32, i32, i32, i32, i32, i32, i32, i32, i32, i32, i32, i32, i32, i32, i32, i32, i32, i32 }
%struct.pathspec = type { i32, i8, i32, i32, ptr }
%struct.diff_filepair = type { ptr, ptr, i16, i8, i8 }
%struct.diff_filespec = type { %struct.object_id, ptr, ptr, ptr, i64, i32, i32, i16, i16, ptr }
%struct.object_id = type { [32 x i8], i32 }

@diff_queued_diff = external global %struct.diff_queue_struct, align 8
@.str = private unnamed_addr constant [30 x i8] c"No such path '%s' in the diff\00", align 1

; Function Attrs: nounwind uwtable
define dso_local void @diffcore_rotate(ptr noundef %0) #0 {
  %2 = alloca ptr, align 8
  %3 = alloca ptr, align 8
  %4 = alloca %struct.diff_queue_struct, align 8
  %5 = alloca i32, align 4
  %6 = alloca i32, align 4
  %7 = alloca i32, align 4
  %8 = alloca i32, align 4
  store ptr %0, ptr %2, align 8, !tbaa !4
  call void @llvm.lifetime.start.p0(i64 8, ptr %3) #9
  store ptr @diff_queued_diff, ptr %3, align 8, !tbaa !9
  call void @llvm.lifetime.start.p0(i64 16, ptr %4) #9
  call void @llvm.memset.p0.i64(ptr align 8 %4, i8 0, i64 16, i1 false)
  call void @llvm.lifetime.start.p0(i64 4, ptr %5) #9
  call void @llvm.lifetime.start.p0(i64 4, ptr %6) #9
  %9 = load ptr, ptr %3, align 8, !tbaa !9
  %10 = getelementptr inbounds nuw %struct.diff_queue_struct, ptr %9, i32 0, i32 2
  %11 = load i32, ptr %10, align 4, !tbaa !11
  %12 = icmp ne i32 %11, 0
  br i1 %12, label %14, label %13

13:                                               ; preds = %1
  store i32 1, ptr %7, align 4
  br label %128

14:                                               ; preds = %1
  store i32 0, ptr %6, align 4, !tbaa !15
  br label %15

15:                                               ; preds = %53, %14
  %16 = load i32, ptr %6, align 4, !tbaa !15
  %17 = load ptr, ptr %3, align 8, !tbaa !9
  %18 = getelementptr inbounds nuw %struct.diff_queue_struct, ptr %17, i32 0, i32 2
  %19 = load i32, ptr %18, align 4, !tbaa !11
  %20 = icmp slt i32 %16, %19
  br i1 %20, label %21, label %56

21:                                               ; preds = %15
  call void @llvm.lifetime.start.p0(i64 4, ptr %8) #9
  %22 = load ptr, ptr %2, align 8, !tbaa !4
  %23 = getelementptr inbounds nuw %struct.diff_options, ptr %22, i32 0, i32 1
  %24 = load ptr, ptr %23, align 8, !tbaa !16
  %25 = load ptr, ptr %3, align 8, !tbaa !9
  %26 = getelementptr inbounds nuw %struct.diff_queue_struct, ptr %25, i32 0, i32 0
  %27 = load ptr, ptr %26, align 8, !tbaa !30
  %28 = load i32, ptr %6, align 4, !tbaa !15
  %29 = sext i32 %28 to i64
  %30 = getelementptr inbounds ptr, ptr %27, i64 %29
  %31 = load ptr, ptr %30, align 8, !tbaa !31
  %32 = getelementptr inbounds nuw %struct.diff_filepair, ptr %31, i32 0, i32 1
  %33 = load ptr, ptr %32, align 8, !tbaa !33
  %34 = getelementptr inbounds nuw %struct.diff_filespec, ptr %33, i32 0, i32 1
  %35 = load ptr, ptr %34, align 8, !tbaa !37
  %36 = call i32 @strcmp(ptr noundef %24, ptr noundef %35) #10
  store i32 %36, ptr %8, align 4, !tbaa !15
  %37 = load i32, ptr %8, align 4, !tbaa !15
  %38 = icmp ne i32 %37, 0
  br i1 %38, label %40, label %39

39:                                               ; preds = %21
  store i32 2, ptr %7, align 4
  br label %50

40:                                               ; preds = %21
  %41 = load ptr, ptr %2, align 8, !tbaa !4
  %42 = getelementptr inbounds nuw %struct.diff_options, ptr %41, i32 0, i32 3
  %43 = load i32, ptr %42, align 4, !tbaa !41
  %44 = icmp ne i32 %43, 0
  br i1 %44, label %49, label %45

45:                                               ; preds = %40
  %46 = load i32, ptr %8, align 4, !tbaa !15
  %47 = icmp slt i32 %46, 0
  br i1 %47, label %48, label %49

48:                                               ; preds = %45
  store i32 2, ptr %7, align 4
  br label %50

49:                                               ; preds = %45, %40
  store i32 0, ptr %7, align 4
  br label %50

50:                                               ; preds = %49, %48, %39
  call void @llvm.lifetime.end.p0(i64 4, ptr %8) #9
  %51 = load i32, ptr %7, align 4
  switch i32 %51, label %131 [
    i32 0, label %52
    i32 2, label %56
  ]

52:                                               ; preds = %50
  br label %53

53:                                               ; preds = %52
  %54 = load i32, ptr %6, align 4, !tbaa !15
  %55 = add nsw i32 %54, 1
  store i32 %55, ptr %6, align 4, !tbaa !15
  br label %15, !llvm.loop !42

56:                                               ; preds = %50, %15
  %57 = load ptr, ptr %3, align 8, !tbaa !9
  %58 = getelementptr inbounds nuw %struct.diff_queue_struct, ptr %57, i32 0, i32 2
  %59 = load i32, ptr %58, align 4, !tbaa !11
  %60 = load i32, ptr %6, align 4, !tbaa !15
  %61 = icmp sle i32 %59, %60
  br i1 %61, label %62, label %73

62:                                               ; preds = %56
  %63 = load ptr, ptr %2, align 8, !tbaa !4
  %64 = getelementptr inbounds nuw %struct.diff_options, ptr %63, i32 0, i32 3
  %65 = load i32, ptr %64, align 4, !tbaa !41
  %66 = icmp ne i32 %65, 0
  br i1 %66, label %67, label %72

67:                                               ; preds = %62
  %68 = call ptr @_(ptr noundef @.str)
  %69 = load ptr, ptr %2, align 8, !tbaa !4
  %70 = getelementptr inbounds nuw %struct.diff_options, ptr %69, i32 0, i32 1
  %71 = load ptr, ptr %70, align 8, !tbaa !16
  call void (ptr, ...) @die(ptr noundef %68, ptr noundef %71) #11
  unreachable

72:                                               ; preds = %62
  store i32 1, ptr %7, align 4
  br label %128

73:                                               ; preds = %56
  %74 = load i32, ptr %6, align 4, !tbaa !15
  store i32 %74, ptr %5, align 4, !tbaa !15
  %75 = load i32, ptr %5, align 4, !tbaa !15
  store i32 %75, ptr %6, align 4, !tbaa !15
  br label %76

76:                                               ; preds = %90, %73
  %77 = load i32, ptr %6, align 4, !tbaa !15
  %78 = load ptr, ptr %3, align 8, !tbaa !9
  %79 = getelementptr inbounds nuw %struct.diff_queue_struct, ptr %78, i32 0, i32 2
  %80 = load i32, ptr %79, align 4, !tbaa !11
  %81 = icmp slt i32 %77, %80
  br i1 %81, label %82, label %93

82:                                               ; preds = %76
  %83 = load ptr, ptr %3, align 8, !tbaa !9
  %84 = getelementptr inbounds nuw %struct.diff_queue_struct, ptr %83, i32 0, i32 0
  %85 = load ptr, ptr %84, align 8, !tbaa !30
  %86 = load i32, ptr %6, align 4, !tbaa !15
  %87 = sext i32 %86 to i64
  %88 = getelementptr inbounds ptr, ptr %85, i64 %87
  %89 = load ptr, ptr %88, align 8, !tbaa !31
  call void @diff_q(ptr noundef %4, ptr noundef %89)
  br label %90

90:                                               ; preds = %82
  %91 = load i32, ptr %6, align 4, !tbaa !15
  %92 = add nsw i32 %91, 1
  store i32 %92, ptr %6, align 4, !tbaa !15
  br label %76, !llvm.loop !44

93:                                               ; preds = %76
  store i32 0, ptr %6, align 4, !tbaa !15
  br label %94

94:                                               ; preds = %120, %93
  %95 = load i32, ptr %6, align 4, !tbaa !15
  %96 = load i32, ptr %5, align 4, !tbaa !15
  %97 = icmp slt i32 %95, %96
  br i1 %97, label %98, label %123

98:                                               ; preds = %94
  %99 = load ptr, ptr %2, align 8, !tbaa !4
  %100 = getelementptr inbounds nuw %struct.diff_options, ptr %99, i32 0, i32 2
  %101 = load i32, ptr %100, align 8, !tbaa !45
  %102 = icmp ne i32 %101, 0
  br i1 %102, label %103, label %111

103:                                              ; preds = %98
  %104 = load ptr, ptr %3, align 8, !tbaa !9
  %105 = getelementptr inbounds nuw %struct.diff_queue_struct, ptr %104, i32 0, i32 0
  %106 = load ptr, ptr %105, align 8, !tbaa !30
  %107 = load i32, ptr %6, align 4, !tbaa !15
  %108 = sext i32 %107 to i64
  %109 = getelementptr inbounds ptr, ptr %106, i64 %108
  %110 = load ptr, ptr %109, align 8, !tbaa !31
  call void @diff_free_filepair(ptr noundef %110)
  br label %119

111:                                              ; preds = %98
  %112 = load ptr, ptr %3, align 8, !tbaa !9
  %113 = getelementptr inbounds nuw %struct.diff_queue_struct, ptr %112, i32 0, i32 0
  %114 = load ptr, ptr %113, align 8, !tbaa !30
  %115 = load i32, ptr %6, align 4, !tbaa !15
  %116 = sext i32 %115 to i64
  %117 = getelementptr inbounds ptr, ptr %114, i64 %116
  %118 = load ptr, ptr %117, align 8, !tbaa !31
  call void @diff_q(ptr noundef %4, ptr noundef %118)
  br label %119

119:                                              ; preds = %111, %103
  br label %120

120:                                              ; preds = %119
  %121 = load i32, ptr %6, align 4, !tbaa !15
  %122 = add nsw i32 %121, 1
  store i32 %122, ptr %6, align 4, !tbaa !15
  br label %94, !llvm.loop !46

123:                                              ; preds = %94
  %124 = load ptr, ptr %3, align 8, !tbaa !9
  %125 = getelementptr inbounds nuw %struct.diff_queue_struct, ptr %124, i32 0, i32 0
  %126 = load ptr, ptr %125, align 8, !tbaa !30
  call void @free(ptr noundef %126) #9
  %127 = load ptr, ptr %3, align 8, !tbaa !9
  call void @llvm.memcpy.p0.p0.i64(ptr align 8 %127, ptr align 8 %4, i64 16, i1 false), !tbaa.struct !47
  store i32 0, ptr %7, align 4
  br label %128

128:                                              ; preds = %123, %72, %13
  call void @llvm.lifetime.end.p0(i64 4, ptr %6) #9
  call void @llvm.lifetime.end.p0(i64 4, ptr %5) #9
  call void @llvm.lifetime.end.p0(i64 16, ptr %4) #9
  call void @llvm.lifetime.end.p0(i64 8, ptr %3) #9
  %129 = load i32, ptr %7, align 4
  switch i32 %129, label %131 [
    i32 0, label %130
    i32 1, label %130
  ]

130:                                              ; preds = %128, %128
  ret void

131:                                              ; preds = %128, %50
  unreachable
}